target datalayout = "e-m:e-p270:32:32-p271:32:32-p272:64:64-i64:64-i128:128-f80:128-n8:16:32:64-S128"
target triple = "x86_64-pc-linux-gnu"

; Function Attrs: mustprogress nounwind uwtable
define hidden noundef ptr @_ZN5boost3log11v2_mt_posix3aux14char_constantsIwE21scan_attr_placeholderEPKwS6_(ptr noundef %0, ptr noundef %1) #6 align 2 {
  %3 = alloca ptr, align 8
  %4 = alloca ptr, align 8
  %5 = alloca i32, align 4
  %6 = alloca i32, align 4
  store ptr %0, ptr %3, align 8, !tbaa !3
  store ptr %1, ptr %4, align 8, !tbaa !3
  br label %7

7:                                                ; preds = %26, %2
  %8 = load ptr, ptr %3, align 8, !tbaa !3
  %9 = load ptr, ptr %4, align 8, !tbaa !3
  %10 = icmp ne ptr %8, %9
  br i1 %10, label %11, label %27

11:                                               ; preds = %7
  call void @llvm.lifetime.start.p0(i64 4, ptr %5) #5
  %12 = load ptr, ptr %3, align 8, !tbaa !3
  %13 = load i32, ptr %12, align 4, !tbaa !24
  store i32 %13, ptr %5, align 4, !tbaa !24
  %14 = load i32, ptr %5, align 4, !tbaa !24
  %15 = call i32 @iswalnum(i32 noundef %14) #5
  %16 = icmp ne i32 %15, 0
  br i1 %16, label %21, label %17

17:                                               ; preds = %11
  %18 = load i32, ptr %5, align 4, !tbaa !24
  %19 = icmp ne i32 %18, 95
  br i1 %19, label %20, label %21

20:                                               ; preds = %17
  store i32 3, ptr %6, align 4
  br label %24

21:                                               ; preds = %17, %11
  %22 = load ptr, ptr %3, align 8, !tbaa !3
  %23 = getelementptr inbounds nuw i32, ptr %22, i32 1
  store ptr %23, ptr %3, align 8, !tbaa !3
  store i32 0, ptr %6, align 4
  br label %24

24:                                               ; preds = %21, %20
  call void @llvm.lifetime.end.p0(i64 4, ptr %5) #5
  %25 = load i32, ptr %6, align 4
  switch i32 %25, label %29 [
    i32 0, label %26
    i32 3, label %27
  ]

26:                                               ; preds = %24
  br label %7, !llvm.loop !28

27:                                               ; preds = %24, %7
  %28 = load ptr, ptr %3, align 8, !tbaa !3
  ret ptr %28

29:                                               ; preds = %24
  unreachable
}