; Function Attrs: mustprogress nounwind uwtable
define hidden noundef ptr @_ZN5boost3log11v2_mt_posix3aux14char_constantsIwE21scan_attr_placeholderEPKwS6_(ptr noundef readonly %0, ptr noundef readnone %1) local_unnamed_addr #7 align 2 {
  br label %3

3:                                                ; preds = %4, %2
  %.08 = phi ptr [ %0, %2 ], [ %9, %4 ]
  %.not = icmp eq ptr %.08, %1
  br i1 %.not, label %10, label %4

4:                                                ; preds = %3
  %5 = load i32, ptr %.08, align 4, !tbaa !19
  %6 = tail call i32 @iswalnum(i32 noundef %5) #11
  %7 = icmp eq i32 %6, 0
  %8 = icmp ne i32 %5, 95
  %or.cond = and i1 %8, %7
  %9 = getelementptr inbounds nuw i8, ptr %.08, i64 4
  br i1 %or.cond, label %10, label %3

10:                                               ; preds = %4, %3
  ret ptr %.08
}